target datalayout = "e-m:e-p270:32:32-p271:32:32-p272:64:64-i64:64-i128:128-f80:128-n8:16:32:64-S128"
target triple = "x86_64-pc-linux-gnu"

%struct.wtap = type { ptr, ptr, i8, i32, i32, ptr, ptr, ptr, i32, ptr, ptr, ptr, ptr, ptr, ptr, ptr, ptr, ptr, ptr, i32, i32, ptr, ptr, ptr, ptr }
%struct.autosar_dlt_params = type { ptr, ptr, ptr, ptr }

; Function Attrs: null_pointer_is_valid sspstrong uwtable
define internal zeroext i1 @autosar_dlt_seek_read(ptr noundef %0, i64 noundef %1, ptr noundef %2, ptr noundef %3, ptr noundef %4) #0 {
  %6 = alloca i1, align 1
  %7 = alloca ptr, align 8
  %8 = alloca i64, align 8
  %9 = alloca ptr, align 8
  %10 = alloca ptr, align 8
  %11 = alloca ptr, align 8
  %12 = alloca %struct.autosar_dlt_params, align 8
  %13 = alloca i32, align 4
  store ptr %0, ptr %7, align 8
  store i64 %1, ptr %8, align 8
  store ptr %2, ptr %9, align 8
  store ptr %3, ptr %10, align 8
  store ptr %4, ptr %11, align 8
  call void @llvm.lifetime.start.p0(i64 32, ptr %12) #9
  %14 = load ptr, ptr %7, align 8
  %15 = getelementptr inbounds nuw %struct.autosar_dlt_params, ptr %12, i32 0, i32 0
  store ptr %14, ptr %15, align 8
  %16 = load ptr, ptr %7, align 8
  %17 = getelementptr inbounds nuw %struct.wtap, ptr %16, i32 0, i32 1
  %18 = load ptr, ptr %17, align 8
  %19 = getelementptr inbounds nuw %struct.autosar_dlt_params, ptr %12, i32 0, i32 2
  store ptr %18, ptr %19, align 8
  %20 = load ptr, ptr %9, align 8
  %21 = getelementptr inbounds nuw %struct.autosar_dlt_params, ptr %12, i32 0, i32 1
  store ptr %20, ptr %21, align 8
  %22 = load ptr, ptr %7, align 8
  %23 = getelementptr inbounds nuw %struct.wtap, ptr %22, i32 0, i32 13
  %24 = load ptr, ptr %23, align 8
  %25 = getelementptr inbounds nuw %struct.autosar_dlt_params, ptr %12, i32 0, i32 3
  store ptr %24, ptr %25, align 8
  %26 = load ptr, ptr %7, align 8
  %27 = getelementptr inbounds nuw %struct.wtap, ptr %26, i32 0, i32 1
  %28 = load ptr, ptr %27, align 8
  %29 = load i64, ptr %8, align 8
  %30 = load ptr, ptr %10, align 8
  %31 = call i64 @file_seek(ptr noundef %28, i64 noundef %29, i32 noundef 0, ptr noundef %30)
  %32 = icmp eq i64 %31, -1
  br i1 %32, label %33, label %34

33:                                               ; preds = %5
  store i1 false, ptr %6, align 1
  store i32 1, ptr %13, align 4
  br label %44

34:                                               ; preds = %5
  %35 = load i64, ptr %8, align 8
  %36 = load ptr, ptr %10, align 8
  %37 = load ptr, ptr %11, align 8
  %38 = call zeroext i1 @autosar_dlt_read_block(ptr noundef %12, i64 noundef %35, ptr noundef %36, ptr noundef %37)
  br i1 %38, label %43, label %39

39:                                               ; preds = %34
  br label %40

40:                                               ; preds = %39
  br label %41

41:                                               ; preds = %40
  br label %42

42:                                               ; preds = %41
  store i1 false, ptr %6, align 1
  store i32 1, ptr %13, align 4
  br label %44

43:                                               ; preds = %34
  store i1 true, ptr %6, align 1
  store i32 1, ptr %13, align 4
  br label %44

44:                                               ; preds = %43, %42, %33
  call void @llvm.lifetime.end.p0(i64 32, ptr %12) #9
  %45 = load i1, ptr %6, align 1
  ret i1 %45
}