; Function Attrs: null_pointer_is_valid sspstrong uwtable
define internal noundef zeroext i1 @autosar_dlt_seek_read(ptr noundef %0, i64 noundef %1, ptr noundef %2, ptr noundef %3, ptr noundef %4) #0 {
  %6 = alloca %struct.autosar_dlt_params, align 8
  call void @llvm.lifetime.start.p0(i64 32, ptr nonnull %6) #7
  store ptr %0, ptr %6, align 8
  %7 = getelementptr inbounds nuw i8, ptr %0, i64 8
  %8 = load ptr, ptr %7, align 8
  %9 = getelementptr inbounds nuw i8, ptr %6, i64 16
  store ptr %8, ptr %9, align 8
  %10 = getelementptr inbounds nuw i8, ptr %6, i64 8
  store ptr %2, ptr %10, align 8
  %11 = getelementptr inbounds nuw i8, ptr %0, i64 96
  %12 = load ptr, ptr %11, align 8
  %13 = getelementptr inbounds nuw i8, ptr %6, i64 24
  store ptr %12, ptr %13, align 8
  %14 = tail call i64 @file_seek(ptr noundef %8, i64 noundef %1, i32 noundef 0, ptr noundef %3)
  %15 = icmp eq i64 %14, -1
  br i1 %15, label %18, label %16

16:                                               ; preds = %5
  %17 = call fastcc zeroext i1 @autosar_dlt_read_block(ptr noundef nonnull %6, i64 noundef %1, ptr noundef %3, ptr noundef %4)
  br label %18

18:                                               ; preds = %16, %5
  %.0 = phi i1 [ false, %5 ], [ %17, %16 ]
  call void @llvm.lifetime.end.p0(i64 32, ptr nonnull %6) #7
  ret i1 %.0
}